; Function Attrs: mustprogress uwtable
define noundef nonnull align 8 dereferenceable(288) ptr @_ZN2cv3SVDclERKNS_11_InputArrayEi(ptr noundef nonnull returned align 8 dereferenceable(288) %0, ptr noundef nonnull align 8 dereferenceable(24) %1, i32 noundef %2) local_unnamed_addr #0 align 2 personality ptr @__gxx_personality_v0 {
  %4 = alloca %"class.cv::_OutputArray", align 8
  %5 = alloca %"class.cv::_OutputArray", align 8
  %6 = alloca %"class.cv::_OutputArray", align 8
  call void @llvm.lifetime.start.p0(i64 24, ptr nonnull %4) #17
  %7 = getelementptr inbounds nuw i8, ptr %0, i64 96
  %8 = getelementptr inbounds nuw i8, ptr %4, i64 8
  %9 = getelementptr inbounds nuw i8, ptr %4, i64 16
  store i64 0, ptr %9, align 8
  store i32 33619968, ptr %4, align 8, !tbaa !96
  store ptr %7, ptr %8, align 8, !tbaa !70
  call void @llvm.lifetime.start.p0(i64 24, ptr nonnull %5) #17
  %10 = getelementptr inbounds nuw i8, ptr %5, i64 8
  %11 = getelementptr inbounds nuw i8, ptr %5, i64 16
  store i64 0, ptr %11, align 8
  store i32 33619968, ptr %5, align 8, !tbaa !96
  store ptr %0, ptr %10, align 8, !tbaa !70
  call void @llvm.lifetime.start.p0(i64 24, ptr nonnull %6) #17
  %12 = getelementptr inbounds nuw i8, ptr %0, i64 192
  %13 = getelementptr inbounds nuw i8, ptr %6, i64 8
  %14 = getelementptr inbounds nuw i8, ptr %6, i64 16
  store i64 0, ptr %14, align 8
  store i32 33619968, ptr %6, align 8, !tbaa !96
  store ptr %12, ptr %13, align 8, !tbaa !70
  call fastcc void @_ZN2cvL11_SVDcomputeERKNS_11_InputArrayERKNS_12_OutputArrayES5_S5_i(ptr noundef nonnull align 8 dereferenceable(24) %1, ptr noundef nonnull align 8 dereferenceable(24) %4, ptr noundef nonnull align 8 dereferenceable(24) %5, ptr noundef nonnull align 8 dereferenceable(24) %6, i32 noundef %2)
  call void @llvm.lifetime.end.p0(i64 24, ptr nonnull %6) #17
  call void @llvm.lifetime.end.p0(i64 24, ptr nonnull %5) #17
  call void @llvm.lifetime.end.p0(i64 24, ptr nonnull %4) #17
  ret ptr %0
}